; Function Attrs: mustprogress uwtable
define void @_ZNK3nix8fetchers5Input11toURLStringERKSt3mapINSt7__cxx1112basic_stringIcSt11char_traitsIcESaIcEEES8_St4lessIS8_ESaISt4pairIKS8_S8_EEE(ptr dead_on_unwind noalias writable sret(%"class.std::__cxx11::basic_string") align 8 %0, ptr noundef nonnull align 8 dereferenceable(104) %1, ptr noundef nonnull readonly align 8 dereferenceable(48) %2) local_unnamed_addr #5 align 2 personality ptr @__gxx_personality_v0 {
  %4 = alloca %"struct.nix::ParsedURL", align 8
  call void @_ZNK3nix8fetchers5Input5toURLEv(ptr dead_on_unwind nonnull writable sret(%"struct.nix::ParsedURL") align 8 %4, ptr noundef nonnull align 8 dereferenceable(104) %1)
  %5 = getelementptr inbounds i8, ptr %2, i64 24
  %6 = load ptr, ptr %5, align 8
  %7 = getelementptr inbounds i8, ptr %2, i64 8
  %8 = icmp eq ptr %6, %7
  br i1 %8, label %._crit_edge, label %.lr.ph

.lr.ph:                                           ; preds = %3
  %9 = getelementptr inbounds i8, ptr %4, i64 168
  br label %10

10:                                               ; preds = %.lr.ph, %_ZNSt3mapINSt7__cxx1112basic_stringIcSt11char_traitsIcESaIcEEES5_St4lessIS5_ESaISt4pairIKS5_S5_EEE6insertERKSA_.exit
  %.sroa.06.09 = phi ptr [ %6, %.lr.ph ], [ %13, %_ZNSt3mapINSt7__cxx1112basic_stringIcSt11char_traitsIcESaIcEEES5_St4lessIS5_ESaISt4pairIKS5_S5_EEE6insertERKSA_.exit ]
  %11 = getelementptr inbounds i8, ptr %.sroa.06.09, i64 32
  %12 = invoke { ptr, i8 } @_ZNSt8_Rb_treeINSt7__cxx1112basic_stringIcSt11char_traitsIcESaIcEEESt4pairIKS5_S5_ESt10_Select1stIS8_ESt4lessIS5_ESaIS8_EE16_M_insert_uniqueIRKS8_EES6_ISt17_Rb_tree_iteratorIS8_EbEOT_(ptr noundef nonnull align 8 dereferenceable(48) %9, ptr noundef nonnull align 8 dereferenceable(64) %11)
          to label %_ZNSt3mapINSt7__cxx1112basic_stringIcSt11char_traitsIcESaIcEEES5_St4lessIS5_ESaISt4pairIKS5_S5_EEE6insertERKSA_.exit unwind label %.loopexit

_ZNSt3mapINSt7__cxx1112basic_stringIcSt11char_traitsIcESaIcEEES5_St4lessIS5_ESaISt4pairIKS5_S5_EEE6insertERKSA_.exit: ; preds = %10
  %13 = call noundef ptr @_ZSt18_Rb_tree_incrementPKSt18_Rb_tree_node_base(ptr noundef %.sroa.06.09) #33
  %14 = icmp eq ptr %13, %7
  br i1 %14, label %._crit_edge, label %10

.loopexit:                                        ; preds = %10
  %lpad.loopexit = landingpad { ptr, i32 }
          cleanup
  br label %15

.loopexit.split-lp:                               ; preds = %._crit_edge
  %lpad.loopexit.split-lp = landingpad { ptr, i32 }
          cleanup
  br label %15

15:                                               ; preds = %.loopexit.split-lp, %.loopexit
  %lpad.phi = phi { ptr, i32 } [ %lpad.loopexit, %.loopexit ], [ %lpad.loopexit.split-lp, %.loopexit.split-lp ]
  call void @_ZN3nix9ParsedURLD2Ev(ptr noundef nonnull align 8 dereferenceable(248) %4) #27
  resume { ptr, i32 } %lpad.phi

._crit_edge:                                      ; preds = %_ZNSt3mapINSt7__cxx1112basic_stringIcSt11char_traitsIcESaIcEEES5_St4lessIS5_ESaISt4pairIKS5_S5_EEE6insertERKSA_.exit, %3
  invoke void @_ZNK3nix9ParsedURL9to_stringB5cxx11Ev(ptr dead_on_unwind writable sret(%"class.std::__cxx11::basic_string") align 8 %0, ptr noundef nonnull align 8 dereferenceable(248) %4)
          to label %16 unwind label %.loopexit.split-lp

16:                                               ; preds = %._crit_edge
  call void @_ZN3nix9ParsedURLD2Ev(ptr noundef nonnull align 8 dereferenceable(248) %4) #27
  ret void
}